target datalayout = "e-m:e-p270:32:32-p271:32:32-p272:64:64-i64:64-i128:128-f80:128-n8:16:32:64-S128"
target triple = "x86_64-pc-linux-gnu"

%class.svector = type { %class.vector.0 }
%class.vector.0 = type { ptr }
%class.vector.62 = type { ptr }
%"class.datalog::relation_signature" = type { %"class.datalog::tr_infrastructure<datalog::relation_traits>::signature_base" }
%"class.datalog::tr_infrastructure<datalog::relation_traits>::signature_base" = type { %class.ptr_vector.61 }
%class.ptr_vector.61 = type { %class.vector.62 }
%"struct.datalog::uint_set2" = type { %class.uint_set, %class.uint_set }
%class.uint_set = type { %class.svector }
%"class.datalog::vector_relation" = type { %"class.datalog::relation_base.base", %"struct.datalog::uint_set2", ptr, i8, %class.union_find_default_ctx, ptr }
%"class.datalog::relation_base.base" = type { %"class.datalog::tr_infrastructure<datalog::relation_traits>::base_ancestor.base" }
%"class.datalog::tr_infrastructure<datalog::relation_traits>::base_ancestor.base" = type <{ ptr, ptr, %"class.datalog::relation_signature", i32 }>
%class.union_find_default_ctx = type { %class.trail_stack }
%class.trail_stack = type { %class.ptr_vector.63, %class.svector, %class.region }
%class.ptr_vector.63 = type { %class.vector.64 }
%class.vector.64 = type { ptr }
%class.region = type { ptr, ptr, ptr, ptr, ptr }
%class.union_find = type { ptr, ptr, %class.svector, %class.svector, %class.svector, %"class.union_find<>::mk_var_trail" }
%"class.union_find<>::mk_var_trail" = type { %class.trail, ptr }
%class.trail = type { ptr }

; Function Attrs: mustprogress nounwind uwtable
define linkonce_odr hidden noundef nonnull align 4 dereferenceable(4) ptr @_ZNK6vectorIjLb0EjEixEj(ptr noundef nonnull align 8 dereferenceable(8) %0, i32 noundef %1) #7 comdat align 2 {
  %3 = alloca ptr, align 8
  %4 = alloca i32, align 4
  store ptr %0, ptr %3, align 8, !tbaa !135
  store i32 %1, ptr %4, align 4, !tbaa !54
  %5 = load ptr, ptr %3, align 8
  %6 = getelementptr inbounds nuw %class.vector.0, ptr %5, i32 0, i32 0
  %7 = load ptr, ptr %6, align 8, !tbaa !137
  %8 = load i32, ptr %4, align 4, !tbaa !54
  %9 = zext i32 %8 to i64
  %10 = getelementptr inbounds nuw i32, ptr %7, i64 %9
  ret ptr %10
}

; Function Attrs: mustprogress nounwind uwtable
define linkonce_odr hidden noundef i32 @_ZNK6vectorIjLb0EjE4sizeEv(ptr noundef nonnull align 8 dereferenceable(8) %0) #7 comdat align 2 {
  %2 = alloca i32, align 4
  %3 = alloca ptr, align 8
  store ptr %0, ptr %3, align 8, !tbaa !135
  %4 = load ptr, ptr %3, align 8
  %5 = getelementptr inbounds nuw %class.vector.0, ptr %4, i32 0, i32 0
  %6 = load ptr, ptr %5, align 8, !tbaa !137
  %7 = icmp eq ptr %6, null
  br i1 %7, label %8, label %9

8:                                                ; preds = %1
  store i32 0, ptr %2, align 4
  br label %14

9:                                                ; preds = %1
  %10 = getelementptr inbounds nuw %class.vector.0, ptr %4, i32 0, i32 0
  %11 = load ptr, ptr %10, align 8, !tbaa !137
  %12 = getelementptr inbounds i32, ptr %11, i64 -1
  %13 = load i32, ptr %12, align 4, !tbaa !54
  store i32 %13, ptr %2, align 4
  br label %14

14:                                               ; preds = %9, %8
  %15 = load i32, ptr %2, align 4
  ret i32 %15
}

; Function Attrs: mustprogress nounwind uwtable
define linkonce_odr hidden noundef i32 @_ZNK10union_findI22union_find_default_ctxE4findEj(ptr noundef nonnull align 8 dereferenceable(56) %0, i32 noundef %1) #7 comdat align 2 {
  %3 = alloca i32, align 4
  %4 = alloca ptr, align 8
  %5 = alloca i32, align 4
  %6 = alloca i32, align 4
  %7 = alloca i32, align 4
  store ptr %0, ptr %4, align 8, !tbaa !165
  store i32 %1, ptr %5, align 4, !tbaa !54
  %8 = load ptr, ptr %4, align 8
  br label %9

9:                                                ; preds = %2, %23
  call void @llvm.lifetime.start.p0(i64 4, ptr %6) #3
  %10 = getelementptr inbounds nuw %class.union_find, ptr %8, i32 0, i32 2
  %11 = load i32, ptr %5, align 4, !tbaa !54
  %12 = call noundef nonnull align 4 dereferenceable(4) ptr @_ZNK6vectorIjLb0EjEixEj(ptr noundef nonnull align 8 dereferenceable(8) %10, i32 noundef %11)
  %13 = load i32, ptr %12, align 4, !tbaa !54
  store i32 %13, ptr %6, align 4, !tbaa !54
  %14 = load i32, ptr %6, align 4, !tbaa !54
  %15 = load i32, ptr %5, align 4, !tbaa !54
  %16 = icmp eq i32 %14, %15
  br i1 %16, label %17, label %19

17:                                               ; preds = %9
  %18 = load i32, ptr %5, align 4, !tbaa !54
  store i32 %18, ptr %3, align 4
  store i32 1, ptr %7, align 4
  br label %21

19:                                               ; preds = %9
  %20 = load i32, ptr %6, align 4, !tbaa !54
  store i32 %20, ptr %5, align 4, !tbaa !54
  store i32 0, ptr %7, align 4
  br label %21

21:                                               ; preds = %19, %17
  call void @llvm.lifetime.end.p0(i64 4, ptr %6) #3
  %22 = load i32, ptr %7, align 4
  switch i32 %22, label %26 [
    i32 0, label %23
    i32 1, label %24
  ]

23:                                               ; preds = %21
  br label %9, !llvm.loop !169

24:                                               ; preds = %21
  %25 = load i32, ptr %3, align 4
  ret i32 %25

26:                                               ; preds = %21
  unreachable
}

; Function Attrs: mustprogress uwtable
define linkonce_odr hidden noundef zeroext i1 @_ZNK8uint_set8containsEj(ptr noundef nonnull align 8 dereferenceable(8) %0, i32 noundef %1) #4 comdat align 2 {
  %3 = alloca ptr, align 8
  %4 = alloca i32, align 4
  %5 = alloca i32, align 4
  store ptr %0, ptr %3, align 8, !tbaa !125
  store i32 %1, ptr %4, align 4, !tbaa !54
  %6 = load ptr, ptr %3, align 8
  call void @llvm.lifetime.start.p0(i64 4, ptr %5) #3
  %7 = load i32, ptr %4, align 4, !tbaa !54
  %8 = lshr i32 %7, 5
  store i32 %8, ptr %5, align 4, !tbaa !54
  %9 = load i32, ptr %5, align 4, !tbaa !54
  %10 = call noundef i32 @_ZNK6vectorIjLb0EjE4sizeEv(ptr noundef nonnull align 8 dereferenceable(8) %6)
  %11 = icmp ult i32 %9, %10
  br i1 %11, label %12, label %21

12:                                               ; preds = %2
  %13 = load i32, ptr %5, align 4, !tbaa !54
  %14 = call noundef nonnull align 4 dereferenceable(4) ptr @_ZNK6vectorIjLb0EjEixEj(ptr noundef nonnull align 8 dereferenceable(8) %6, i32 noundef %13)
  %15 = load i32, ptr %14, align 4, !tbaa !54
  %16 = load i32, ptr %4, align 4, !tbaa !54
  %17 = and i32 %16, 31
  %18 = shl i32 1, %17
  %19 = and i32 %15, %18
  %20 = icmp ne i32 %19, 0
  br label %21

21:                                               ; preds = %12, %2
  %22 = phi i1 [ false, %2 ], [ %20, %12 ]
  call void @llvm.lifetime.end.p0(i64 4, ptr %5) #3
  ret i1 %22
}

; Function Attrs: mustprogress nounwind uwtable
define linkonce_odr hidden noundef i32 @_ZNK7datalog15vector_relationINS_9uint_set2ENS_21bound_relation_helperEE4findEj(ptr noundef nonnull align 8 dereferenceable(128) %0, i32 noundef %1) #7 comdat align 2 {
  %3 = alloca ptr, align 8
  %4 = alloca i32, align 4
  store ptr %0, ptr %3, align 8, !tbaa !140
  store i32 %1, ptr %4, align 4, !tbaa !54
  %5 = load ptr, ptr %3, align 8
  %6 = getelementptr inbounds nuw %"class.datalog::vector_relation", ptr %5, i32 0, i32 5
  %7 = load ptr, ptr %6, align 8, !tbaa !157
  %8 = load i32, ptr %4, align 4, !tbaa !54
  %9 = call noundef i32 @_ZNK10union_findI22union_find_default_ctxE4findEj(ptr noundef nonnull align 8 dereferenceable(56) %7, i32 noundef %8)
  ret i32 %9
}

; Function Attrs: mustprogress uwtable
define hidden noundef zeroext i1 @_ZNK7datalog14bound_relation8is_emptyEjRKNS_9uint_set2E(ptr noundef nonnull align 8 dereferenceable(136) %0, i32 noundef %1, ptr noundef nonnull align 8 dereferenceable(16) %2) unnamed_addr #4 align 2 {
  %4 = alloca ptr, align 8
  %5 = alloca i32, align 4
  %6 = alloca ptr, align 8
  store ptr %0, ptr %4, align 8, !tbaa !138
  store i32 %1, ptr %5, align 4, !tbaa !54
  store ptr %2, ptr %6, align 8, !tbaa !119
  %7 = load ptr, ptr %4, align 8
  %8 = load ptr, ptr %6, align 8, !tbaa !119
  %9 = getelementptr inbounds nuw %"struct.datalog::uint_set2", ptr %8, i32 0, i32 0
  %10 = load i32, ptr %5, align 4, !tbaa !54
  %11 = call noundef i32 @_ZNK7datalog15vector_relationINS_9uint_set2ENS_21bound_relation_helperEE4findEj(ptr noundef nonnull align 8 dereferenceable(128) %7, i32 noundef %10)
  %12 = call noundef zeroext i1 @_ZNK8uint_set8containsEj(ptr noundef nonnull align 8 dereferenceable(8) %9, i32 noundef %11)
  br i1 %12, label %19, label %13

13:                                               ; preds = %3
  %14 = load ptr, ptr %6, align 8, !tbaa !119
  %15 = getelementptr inbounds nuw %"struct.datalog::uint_set2", ptr %14, i32 0, i32 1
  %16 = load i32, ptr %5, align 4, !tbaa !54
  %17 = call noundef i32 @_ZNK7datalog15vector_relationINS_9uint_set2ENS_21bound_relation_helperEE4findEj(ptr noundef nonnull align 8 dereferenceable(128) %7, i32 noundef %16)
  %18 = call noundef zeroext i1 @_ZNK8uint_set8containsEj(ptr noundef nonnull align 8 dereferenceable(8) %15, i32 noundef %17)
  br label %19

19:                                               ; preds = %13, %3
  %20 = phi i1 [ true, %3 ], [ %18, %13 ]
  ret i1 %20
}