; Function Attrs: mustprogress nofree norecurse nosync nounwind willreturn memory(read, inaccessiblemem: none) uwtable
define hidden noundef zeroext i1 @_ZNK7datalog14bound_relation8is_emptyEjRKNS_9uint_set2E(ptr noundef nonnull readonly align 8 captures(none) dereferenceable(136) %0, i32 noundef %1, ptr noundef nonnull readonly align 8 captures(none) dereferenceable(16) %2) unnamed_addr #6 align 2 {
  %4 = getelementptr inbounds nuw i8, ptr %0, i64 120
  %5 = load ptr, ptr %4, align 8, !tbaa !194
  %6 = getelementptr inbounds nuw i8, ptr %5, i64 16
  %7 = load ptr, ptr %6, align 8, !tbaa !61
  br label %8

8:                                                ; preds = %8, %3
  %.08.i.i = phi i32 [ %1, %3 ], [ %11, %8 ]
  %9 = zext i32 %.08.i.i to i64
  %10 = getelementptr inbounds nuw i32, ptr %7, i64 %9
  %11 = load i32, ptr %10, align 4, !tbaa !40
  %.not.i.i = icmp eq i32 %11, %.08.i.i
  br i1 %.not.i.i, label %_ZNK7datalog15vector_relationINS_9uint_set2ENS_21bound_relation_helperEE4findEj.exit, label %8

_ZNK7datalog15vector_relationINS_9uint_set2ENS_21bound_relation_helperEE4findEj.exit: ; preds = %8
  %12 = lshr i32 %.08.i.i, 5
  %13 = load ptr, ptr %2, align 8, !tbaa !61
  %14 = icmp eq ptr %13, null
  br i1 %14, label %_ZNK8uint_set8containsEj.exit.thread.preheader, label %_ZNK6vectorIjLb0EjE4sizeEv.exit.i

_ZNK6vectorIjLb0EjE4sizeEv.exit.i:                ; preds = %_ZNK7datalog15vector_relationINS_9uint_set2ENS_21bound_relation_helperEE4findEj.exit
  %15 = getelementptr inbounds i8, ptr %13, i64 -4
  %16 = load i32, ptr %15, align 4, !tbaa !40
  %17 = icmp ult i32 %12, %16
  br i1 %17, label %_ZNK8uint_set8containsEj.exit, label %_ZNK8uint_set8containsEj.exit.thread.preheader

_ZNK8uint_set8containsEj.exit:                    ; preds = %_ZNK6vectorIjLb0EjE4sizeEv.exit.i
  %18 = zext nneg i32 %12 to i64
  %19 = getelementptr inbounds nuw i32, ptr %13, i64 %18
  %20 = load i32, ptr %19, align 4, !tbaa !40
  %21 = and i32 %.08.i.i, 31
  %22 = shl nuw i32 1, %21
  %23 = and i32 %20, %22
  %.not = icmp eq i32 %23, 0
  br i1 %.not, label %_ZNK8uint_set8containsEj.exit.thread.preheader, label %_ZNK8uint_set8containsEj.exit8

_ZNK8uint_set8containsEj.exit.thread.preheader:   ; preds = %_ZNK7datalog15vector_relationINS_9uint_set2ENS_21bound_relation_helperEE4findEj.exit, %_ZNK6vectorIjLb0EjE4sizeEv.exit.i, %_ZNK8uint_set8containsEj.exit
  br label %_ZNK8uint_set8containsEj.exit.thread

_ZNK8uint_set8containsEj.exit.thread:             ; preds = %_ZNK8uint_set8containsEj.exit.thread.preheader, %_ZNK8uint_set8containsEj.exit.thread
  %.08.i.i4 = phi i32 [ %26, %_ZNK8uint_set8containsEj.exit.thread ], [ %1, %_ZNK8uint_set8containsEj.exit.thread.preheader ]
  %24 = zext i32 %.08.i.i4 to i64
  %25 = getelementptr inbounds nuw i32, ptr %7, i64 %24
  %26 = load i32, ptr %25, align 4, !tbaa !40
  %.not.i.i5 = icmp eq i32 %26, %.08.i.i4
  br i1 %.not.i.i5, label %_ZNK7datalog15vector_relationINS_9uint_set2ENS_21bound_relation_helperEE4findEj.exit6, label %_ZNK8uint_set8containsEj.exit.thread

_ZNK7datalog15vector_relationINS_9uint_set2ENS_21bound_relation_helperEE4findEj.exit6: ; preds = %_ZNK8uint_set8containsEj.exit.thread
  %27 = getelementptr inbounds nuw i8, ptr %2, i64 8
  %28 = lshr i32 %.08.i.i4, 5
  %29 = load ptr, ptr %27, align 8, !tbaa !61
  %30 = icmp eq ptr %29, null
  br i1 %30, label %_ZNK8uint_set8containsEj.exit8, label %_ZNK6vectorIjLb0EjE4sizeEv.exit.i7

_ZNK6vectorIjLb0EjE4sizeEv.exit.i7:               ; preds = %_ZNK7datalog15vector_relationINS_9uint_set2ENS_21bound_relation_helperEE4findEj.exit6
  %31 = getelementptr inbounds i8, ptr %29, i64 -4
  %32 = load i32, ptr %31, align 4, !tbaa !40
  %33 = icmp ult i32 %28, %32
  br i1 %33, label %34, label %_ZNK8uint_set8containsEj.exit8

34:                                               ; preds = %_ZNK6vectorIjLb0EjE4sizeEv.exit.i7
  %35 = zext nneg i32 %28 to i64
  %36 = getelementptr inbounds nuw i32, ptr %29, i64 %35
  %37 = load i32, ptr %36, align 4, !tbaa !40
  %38 = and i32 %.08.i.i4, 31
  %39 = shl nuw i32 1, %38
  %40 = and i32 %37, %39
  %41 = icmp ne i32 %40, 0
  br label %_ZNK8uint_set8containsEj.exit8

_ZNK8uint_set8containsEj.exit8:                   ; preds = %34, %_ZNK6vectorIjLb0EjE4sizeEv.exit.i7, %_ZNK7datalog15vector_relationINS_9uint_set2ENS_21bound_relation_helperEE4findEj.exit6, %_ZNK8uint_set8containsEj.exit
  %42 = phi i1 [ true, %_ZNK8uint_set8containsEj.exit ], [ false, %_ZNK6vectorIjLb0EjE4sizeEv.exit.i7 ], [ %41, %34 ], [ false, %_ZNK7datalog15vector_relationINS_9uint_set2ENS_21bound_relation_helperEE4findEj.exit6 ]
  ret i1 %42
}